target datalayout = "e-m:e-p270:32:32-p271:32:32-p272:64:64-i64:64-i128:128-f80:128-n8:16:32:64-S128"
target triple = "x86_64-pc-linux-gnu"

%struct._zend_refcounted_h = type { i32, %union.anon }
%union.anon = type { i32 }
%struct._zend_string = type { %struct._zend_refcounted_h, i64, i64, [1 x i8] }

@.str.19 = private unnamed_addr constant [29 x i8] c"Illegal member variable name\00", align 1
@.str.20 = private unnamed_addr constant [29 x i8] c"Corrupt member variable name\00", align 1

; Function Attrs: nounwind uwtable
define i32 @zend_unmangle_property_name_ex(ptr noundef %0, ptr noundef %1, ptr noundef %2, ptr noundef %3) #0 {
  %5 = alloca ptr, align 8
  %6 = alloca i64, align 8
  %7 = alloca ptr, align 8
  %8 = alloca i64, align 8
  %9 = alloca i32, align 4
  %10 = alloca ptr, align 8
  %11 = alloca ptr, align 8
  %12 = alloca ptr, align 8
  %13 = alloca ptr, align 8
  %14 = alloca i64, align 8
  %15 = alloca i64, align 8
  store ptr %0, ptr %10, align 8
  store ptr %1, ptr %11, align 8
  store ptr %2, ptr %12, align 8
  store ptr %3, ptr %13, align 8
  %16 = load ptr, ptr %11, align 8
  store ptr null, ptr %16, align 8
  %17 = load ptr, ptr %10, align 8
  %18 = getelementptr inbounds %struct._zend_string, ptr %17, i32 0, i32 2
  %19 = load i64, ptr %18, align 8
  %20 = icmp ne i64 %19, 0
  br i1 %20, label %21, label %28

21:                                               ; preds = %4
  %22 = load ptr, ptr %10, align 8
  %23 = getelementptr inbounds %struct._zend_string, ptr %22, i32 0, i32 3
  %24 = getelementptr inbounds [1 x i8], ptr %23, i64 0, i64 0
  %25 = load i8, ptr %24, align 8
  %26 = sext i8 %25 to i32
  %27 = icmp ne i32 %26, 0
  br i1 %27, label %28, label %41

28:                                               ; preds = %21, %4
  %29 = load ptr, ptr %10, align 8
  %30 = getelementptr inbounds %struct._zend_string, ptr %29, i32 0, i32 3
  %31 = getelementptr inbounds [1 x i8], ptr %30, i64 0, i64 0
  %32 = load ptr, ptr %12, align 8
  store ptr %31, ptr %32, align 8
  %33 = load ptr, ptr %13, align 8
  %34 = icmp ne ptr %33, null
  br i1 %34, label %35, label %40

35:                                               ; preds = %28
  %36 = load ptr, ptr %10, align 8
  %37 = getelementptr inbounds %struct._zend_string, ptr %36, i32 0, i32 2
  %38 = load i64, ptr %37, align 8
  %39 = load ptr, ptr %13, align 8
  store i64 %38, ptr %39, align 8
  br label %40

40:                                               ; preds = %35, %28
  store i32 0, ptr %9, align 4
  br label %158

41:                                               ; preds = %21
  %42 = load ptr, ptr %10, align 8
  %43 = getelementptr inbounds %struct._zend_string, ptr %42, i32 0, i32 2
  %44 = load i64, ptr %43, align 8
  %45 = icmp ult i64 %44, 3
  br i1 %45, label %53, label %46

46:                                               ; preds = %41
  %47 = load ptr, ptr %10, align 8
  %48 = getelementptr inbounds %struct._zend_string, ptr %47, i32 0, i32 3
  %49 = getelementptr inbounds [1 x i8], ptr %48, i64 0, i64 1
  %50 = load i8, ptr %49, align 1
  %51 = sext i8 %50 to i32
  %52 = icmp eq i32 %51, 0
  br i1 %52, label %53, label %66

53:                                               ; preds = %46, %41
  call void (i32, ptr, ...) @zend_error(i32 noundef 8, ptr noundef @.str.19)
  %54 = load ptr, ptr %10, align 8
  %55 = getelementptr inbounds %struct._zend_string, ptr %54, i32 0, i32 3
  %56 = getelementptr inbounds [1 x i8], ptr %55, i64 0, i64 0
  %57 = load ptr, ptr %12, align 8
  store ptr %56, ptr %57, align 8
  %58 = load ptr, ptr %13, align 8
  %59 = icmp ne ptr %58, null
  br i1 %59, label %60, label %65

60:                                               ; preds = %53
  %61 = load ptr, ptr %10, align 8
  %62 = getelementptr inbounds %struct._zend_string, ptr %61, i32 0, i32 2
  %63 = load i64, ptr %62, align 8
  %64 = load ptr, ptr %13, align 8
  store i64 %63, ptr %64, align 8
  br label %65

65:                                               ; preds = %60, %53
  store i32 -1, ptr %9, align 4
  br label %158

66:                                               ; preds = %46
  %67 = load ptr, ptr %10, align 8
  %68 = getelementptr inbounds %struct._zend_string, ptr %67, i32 0, i32 3
  %69 = getelementptr inbounds [1 x i8], ptr %68, i64 0, i64 0
  %70 = getelementptr inbounds i8, ptr %69, i64 1
  %71 = load ptr, ptr %10, align 8
  %72 = getelementptr inbounds %struct._zend_string, ptr %71, i32 0, i32 2
  %73 = load i64, ptr %72, align 8
  %74 = sub i64 %73, 2
  store ptr %70, ptr %5, align 8
  store i64 %74, ptr %6, align 8
  %75 = load ptr, ptr %5, align 8
  %76 = load i64, ptr %6, align 8
  %77 = call i64 @strnlen(ptr noundef %75, i64 noundef %76) #17
  store i64 %77, ptr %14, align 8
  %78 = load i64, ptr %14, align 8
  %79 = load ptr, ptr %10, align 8
  %80 = getelementptr inbounds %struct._zend_string, ptr %79, i32 0, i32 2
  %81 = load i64, ptr %80, align 8
  %82 = sub i64 %81, 2
  %83 = icmp uge i64 %78, %82
  br i1 %83, label %93, label %84

84:                                               ; preds = %66
  %85 = load ptr, ptr %10, align 8
  %86 = getelementptr inbounds %struct._zend_string, ptr %85, i32 0, i32 3
  %87 = load i64, ptr %14, align 8
  %88 = add i64 %87, 1
  %89 = getelementptr inbounds [1 x i8], ptr %86, i64 0, i64 %88
  %90 = load i8, ptr %89, align 1
  %91 = sext i8 %90 to i32
  %92 = icmp ne i32 %91, 0
  br i1 %92, label %93, label %106

93:                                               ; preds = %84, %66
  call void (i32, ptr, ...) @zend_error(i32 noundef 8, ptr noundef @.str.20)
  %94 = load ptr, ptr %10, align 8
  %95 = getelementptr inbounds %struct._zend_string, ptr %94, i32 0, i32 3
  %96 = getelementptr inbounds [1 x i8], ptr %95, i64 0, i64 0
  %97 = load ptr, ptr %12, align 8
  store ptr %96, ptr %97, align 8
  %98 = load ptr, ptr %13, align 8
  %99 = icmp ne ptr %98, null
  br i1 %99, label %100, label %105

100:                                              ; preds = %93
  %101 = load ptr, ptr %10, align 8
  %102 = getelementptr inbounds %struct._zend_string, ptr %101, i32 0, i32 2
  %103 = load i64, ptr %102, align 8
  %104 = load ptr, ptr %13, align 8
  store i64 %103, ptr %104, align 8
  br label %105

105:                                              ; preds = %100, %93
  store i32 -1, ptr %9, align 4
  br label %158

106:                                              ; preds = %84
  %107 = load ptr, ptr %10, align 8
  %108 = getelementptr inbounds %struct._zend_string, ptr %107, i32 0, i32 3
  %109 = getelementptr inbounds [1 x i8], ptr %108, i64 0, i64 0
  %110 = getelementptr inbounds i8, ptr %109, i64 1
  %111 = load ptr, ptr %11, align 8
  store ptr %110, ptr %111, align 8
  %112 = load ptr, ptr %11, align 8
  %113 = load ptr, ptr %112, align 8
  %114 = load i64, ptr %14, align 8
  %115 = getelementptr inbounds i8, ptr %113, i64 %114
  %116 = getelementptr inbounds i8, ptr %115, i64 1
  %117 = load ptr, ptr %10, align 8
  %118 = getelementptr inbounds %struct._zend_string, ptr %117, i32 0, i32 2
  %119 = load i64, ptr %118, align 8
  %120 = load i64, ptr %14, align 8
  %121 = sub i64 %119, %120
  %122 = sub i64 %121, 2
  store ptr %116, ptr %7, align 8
  store i64 %122, ptr %8, align 8
  %123 = load ptr, ptr %7, align 8
  %124 = load i64, ptr %8, align 8
  %125 = call i64 @strnlen(ptr noundef %123, i64 noundef %124) #17
  store i64 %125, ptr %15, align 8
  %126 = load i64, ptr %14, align 8
  %127 = load i64, ptr %15, align 8
  %128 = add i64 %126, %127
  %129 = add i64 %128, 2
  %130 = load ptr, ptr %10, align 8
  %131 = getelementptr inbounds %struct._zend_string, ptr %130, i32 0, i32 2
  %132 = load i64, ptr %131, align 8
  %133 = icmp ne i64 %129, %132
  br i1 %133, label %134, label %139

134:                                              ; preds = %106
  %135 = load i64, ptr %15, align 8
  %136 = add i64 %135, 1
  %137 = load i64, ptr %14, align 8
  %138 = add i64 %137, %136
  store i64 %138, ptr %14, align 8
  br label %139

139:                                              ; preds = %134, %106
  %140 = load ptr, ptr %10, align 8
  %141 = getelementptr inbounds %struct._zend_string, ptr %140, i32 0, i32 3
  %142 = getelementptr inbounds [1 x i8], ptr %141, i64 0, i64 0
  %143 = load i64, ptr %14, align 8
  %144 = getelementptr inbounds i8, ptr %142, i64 %143
  %145 = getelementptr inbounds i8, ptr %144, i64 2
  %146 = load ptr, ptr %12, align 8
  store ptr %145, ptr %146, align 8
  %147 = load ptr, ptr %13, align 8
  %148 = icmp ne ptr %147, null
  br i1 %148, label %149, label %157

149:                                              ; preds = %139
  %150 = load ptr, ptr %10, align 8
  %151 = getelementptr inbounds %struct._zend_string, ptr %150, i32 0, i32 2
  %152 = load i64, ptr %151, align 8
  %153 = load i64, ptr %14, align 8
  %154 = sub i64 %152, %153
  %155 = sub i64 %154, 2
  %156 = load ptr, ptr %13, align 8
  store i64 %155, ptr %156, align 8
  br label %157

157:                                              ; preds = %149, %139
  store i32 0, ptr %9, align 4
  br label %158

158:                                              ; preds = %157, %105, %65, %40
  %159 = load i32, ptr %9, align 4
  ret i32 %159
}