; Function Attrs: nounwind uwtable
define noundef i32 @zend_unmangle_property_name_ex(ptr noundef %0, ptr nocapture noundef writeonly %1, ptr nocapture noundef writeonly %2, ptr noundef writeonly %3) local_unnamed_addr #0 {
  store ptr null, ptr %1, align 8
  %5 = getelementptr inbounds i8, ptr %0, i64 16
  %6 = load i64, ptr %5, align 8
  %.not = icmp eq i64 %6, 0
  br i1 %.not, label %10, label %7

7:                                                ; preds = %4
  %8 = getelementptr inbounds i8, ptr %0, i64 24
  %9 = load i8, ptr %8, align 8
  %.not52 = icmp eq i8 %9, 0
  br i1 %.not52, label %14, label %10

10:                                               ; preds = %7, %4
  %11 = getelementptr inbounds i8, ptr %0, i64 24
  store ptr %11, ptr %2, align 8
  %.not59 = icmp eq ptr %3, null
  br i1 %.not59, label %48, label %12

12:                                               ; preds = %10
  %13 = load i64, ptr %5, align 8
  br label %.sink.split

14:                                               ; preds = %7
  %15 = icmp ult i64 %6, 3
  br i1 %15, label %20, label %16

16:                                               ; preds = %14
  %17 = getelementptr inbounds i8, ptr %0, i64 25
  %18 = load i8, ptr %17, align 1
  %19 = icmp eq i8 %18, 0
  br i1 %19, label %20, label %23

20:                                               ; preds = %16, %14
  tail call void (i32, ptr, ...) @zend_error(i32 noundef 8, ptr noundef nonnull @.str.19) #30
  store ptr %8, ptr %2, align 8
  %.not58 = icmp eq ptr %3, null
  br i1 %.not58, label %48, label %21

21:                                               ; preds = %20
  %22 = load i64, ptr %5, align 8
  br label %.sink.split

23:                                               ; preds = %16
  %24 = add i64 %6, -2
  %25 = tail call i64 @strnlen(ptr noundef nonnull %17, i64 noundef %24) #29
  %.not53 = icmp ult i64 %25, %24
  br i1 %.not53, label %26, label %30

26:                                               ; preds = %23
  %27 = add nuw i64 %25, 1
  %28 = getelementptr inbounds [1 x i8], ptr %8, i64 0, i64 %27
  %29 = load i8, ptr %28, align 1
  %.not54 = icmp eq i8 %29, 0
  br i1 %.not54, label %33, label %30

30:                                               ; preds = %26, %23
  tail call void (i32, ptr, ...) @zend_error(i32 noundef 8, ptr noundef nonnull @.str.20) #30
  store ptr %8, ptr %2, align 8
  %.not57 = icmp eq ptr %3, null
  br i1 %.not57, label %48, label %31

31:                                               ; preds = %30
  %32 = load i64, ptr %5, align 8
  br label %.sink.split

33:                                               ; preds = %26
  store ptr %17, ptr %1, align 8
  %34 = getelementptr inbounds i8, ptr %17, i64 %25
  %35 = getelementptr inbounds i8, ptr %34, i64 1
  %36 = load i64, ptr %5, align 8
  %reass.sub = sub i64 %36, %25
  %37 = add i64 %reass.sub, -2
  %38 = tail call i64 @strnlen(ptr noundef nonnull %35, i64 noundef %37) #29
  %39 = add nuw i64 %25, 2
  %40 = add i64 %39, %38
  %.not55 = icmp eq i64 %40, %36
  %41 = add i64 %38, 1
  %42 = select i1 %.not55, i64 0, i64 %41
  %.048 = add i64 %42, %25
  %43 = getelementptr inbounds i8, ptr %8, i64 %.048
  %44 = getelementptr inbounds i8, ptr %43, i64 2
  store ptr %44, ptr %2, align 8
  %.not56 = icmp eq ptr %3, null
  br i1 %.not56, label %48, label %45

45:                                               ; preds = %33
  %46 = load i64, ptr %5, align 8
  %reass.sub60 = sub i64 %46, %.048
  %47 = add i64 %reass.sub60, -2
  br label %.sink.split

.sink.split:                                      ; preds = %12, %21, %31, %45
  %.sink = phi i64 [ %47, %45 ], [ %32, %31 ], [ %22, %21 ], [ %13, %12 ]
  %.0.ph = phi i32 [ 0, %45 ], [ -1, %31 ], [ -1, %21 ], [ 0, %12 ]
  store i64 %.sink, ptr %3, align 8
  br label %48

48:                                               ; preds = %.sink.split, %33, %30, %20, %10
  %.0 = phi i32 [ 0, %10 ], [ -1, %20 ], [ -1, %30 ], [ 0, %33 ], [ %.0.ph, %.sink.split ]
  ret i32 %.0
}